target datalayout = "e-m:e-p270:32:32-p271:32:32-p272:64:64-i64:64-i128:128-f80:128-n8:16:32:64-S128"
target triple = "x86_64-pc-linux-gnu"

%"class.std::vector.428" = type { %"struct.std::_Vector_base.429" }
%"struct.std::_Vector_base.429" = type { %"struct.std::_Vector_base<unsigned int, std::allocator<unsigned int>>::_Vector_impl" }
%"struct.std::_Vector_base<unsigned int, std::allocator<unsigned int>>::_Vector_impl" = type { %"struct.std::_Vector_base<unsigned int, std::allocator<unsigned int>>::_Vector_impl_data" }
%"struct.std::_Vector_base<unsigned int, std::allocator<unsigned int>>::_Vector_impl_data" = type { ptr, ptr, ptr }
%"class.rocksdb::SmallEnumSet.471" = type { i64 }
%"struct.rocksdb::experimental::KeySegmentsExtractor::Result" = type <{ %"class.std::vector.428", i8, [7 x i8] }>
%"class.std::unique_ptr.745" = type { %"struct.std::__uniq_ptr_data.746" }
%"struct.std::__uniq_ptr_data.746" = type { %"class.std::__uniq_ptr_impl.747" }
%"class.std::__uniq_ptr_impl.747" = type { %"class.std::tuple.748" }
%"class.std::tuple.748" = type { %"struct.std::_Tuple_impl.749" }
%"struct.std::_Tuple_impl.749" = type { %"struct.std::_Head_base.752" }
%"struct.std::_Head_base.752" = type { ptr }
%"class.rocksdb::experimental::(anonymous namespace)::SstQueryFilterBuilder" = type { ptr }
%"class.rocksdb::experimental::(anonymous namespace)::CategoryScopeFilterWrapperBuilder" = type { %"class.rocksdb::experimental::(anonymous namespace)::SstQueryFilterBuilder", %"class.rocksdb::SmallEnumSet.471", %"class.std::unique_ptr.745" }

; Function Attrs: mustprogress nounwind uwtable
define internal noundef nonnull align 8 dereferenceable(8) ptr @_ZNSt10_Head_baseILm0EPN7rocksdb12experimental12_GLOBAL__N_121SstQueryFilterBuilderELb0EE7_M_headERKS5_(ptr noundef nonnull align 8 dereferenceable(8) %0) #3 align 2 {
  %2 = alloca ptr, align 8
  store ptr %0, ptr %2, align 8, !tbaa !2169
  %3 = load ptr, ptr %2, align 8, !tbaa !2169
  %4 = getelementptr inbounds nuw %"struct.std::_Head_base.752", ptr %3, i32 0, i32 0
  ret ptr %4
}

; Function Attrs: mustprogress nounwind uwtable
define internal noundef nonnull align 8 dereferenceable(8) ptr @_ZNSt11_Tuple_implILm0EJPN7rocksdb12experimental12_GLOBAL__N_121SstQueryFilterBuilderESt14default_deleteIS3_EEE7_M_headERKS7_(ptr noundef nonnull align 8 dereferenceable(8) %0) #3 align 2 {
  %2 = alloca ptr, align 8
  store ptr %0, ptr %2, align 8, !tbaa !2164
  %3 = load ptr, ptr %2, align 8, !tbaa !2164
  %4 = call noundef nonnull align 8 dereferenceable(8) ptr @_ZNSt10_Head_baseILm0EPN7rocksdb12experimental12_GLOBAL__N_121SstQueryFilterBuilderELb0EE7_M_headERKS5_(ptr noundef nonnull align 8 dereferenceable(8) %3) #4
  ret ptr %4
}

; Function Attrs: mustprogress nounwind uwtable
define internal noundef nonnull align 8 dereferenceable(8) ptr @_ZSt12__get_helperILm0EPN7rocksdb12experimental12_GLOBAL__N_121SstQueryFilterBuilderEJSt14default_deleteIS3_EEERKT0_RKSt11_Tuple_implIXT_EJS7_DpT1_EE(ptr noundef nonnull align 8 dereferenceable(8) %0) #3 {
  %2 = alloca ptr, align 8
  store ptr %0, ptr %2, align 8, !tbaa !2164
  %3 = load ptr, ptr %2, align 8, !tbaa !2164
  %4 = call noundef nonnull align 8 dereferenceable(8) ptr @_ZNSt11_Tuple_implILm0EJPN7rocksdb12experimental12_GLOBAL__N_121SstQueryFilterBuilderESt14default_deleteIS3_EEE7_M_headERKS7_(ptr noundef nonnull align 8 dereferenceable(8) %3) #4
  ret ptr %4
}

; Function Attrs: mustprogress nounwind uwtable
define internal noundef nonnull align 8 dereferenceable(8) ptr @_ZSt3getILm0EJPN7rocksdb12experimental12_GLOBAL__N_121SstQueryFilterBuilderESt14default_deleteIS3_EEERKNSt13tuple_elementIXT_ESt5tupleIJDpT0_EEE4typeERKSB_(ptr noundef nonnull align 8 dereferenceable(8) %0) #3 {
  %2 = alloca ptr, align 8
  store ptr %0, ptr %2, align 8, !tbaa !2162
  %3 = load ptr, ptr %2, align 8, !tbaa !2162
  %4 = call noundef nonnull align 8 dereferenceable(8) ptr @_ZSt12__get_helperILm0EPN7rocksdb12experimental12_GLOBAL__N_121SstQueryFilterBuilderEJSt14default_deleteIS3_EEERKT0_RKSt11_Tuple_implIXT_EJS7_DpT1_EE(ptr noundef nonnull align 8 dereferenceable(8) %3) #4
  ret ptr %4
}

; Function Attrs: mustprogress nounwind uwtable
define internal noundef ptr @_ZNKSt15__uniq_ptr_implIN7rocksdb12experimental12_GLOBAL__N_121SstQueryFilterBuilderESt14default_deleteIS3_EE6_M_ptrEv(ptr noundef nonnull align 8 dereferenceable(8) %0) #3 align 2 {
  %2 = alloca ptr, align 8
  store ptr %0, ptr %2, align 8, !tbaa !2160
  %3 = load ptr, ptr %2, align 8
  %4 = getelementptr inbounds nuw %"class.std::__uniq_ptr_impl.747", ptr %3, i32 0, i32 0
  %5 = call noundef nonnull align 8 dereferenceable(8) ptr @_ZSt3getILm0EJPN7rocksdb12experimental12_GLOBAL__N_121SstQueryFilterBuilderESt14default_deleteIS3_EEERKNSt13tuple_elementIXT_ESt5tupleIJDpT0_EEE4typeERKSB_(ptr noundef nonnull align 8 dereferenceable(8) %4) #4
  %6 = load ptr, ptr %5, align 8, !tbaa !2075
  ret ptr %6
}

; Function Attrs: mustprogress nounwind uwtable
define internal noundef ptr @_ZNKSt10unique_ptrIN7rocksdb12experimental12_GLOBAL__N_121SstQueryFilterBuilderESt14default_deleteIS3_EE3getEv(ptr noundef nonnull align 8 dereferenceable(8) %0) #3 align 2 {
  %2 = alloca ptr, align 8
  store ptr %0, ptr %2, align 8, !tbaa !2059
  %3 = load ptr, ptr %2, align 8
  %4 = getelementptr inbounds nuw %"class.std::unique_ptr.745", ptr %3, i32 0, i32 0
  %5 = call noundef ptr @_ZNKSt15__uniq_ptr_implIN7rocksdb12experimental12_GLOBAL__N_121SstQueryFilterBuilderESt14default_deleteIS3_EE6_M_ptrEv(ptr noundef nonnull align 8 dereferenceable(8) %4) #4
  ret ptr %5
}

; Function Attrs: mustprogress nounwind uwtable
define internal noundef ptr @_ZNKSt10unique_ptrIN7rocksdb12experimental12_GLOBAL__N_121SstQueryFilterBuilderESt14default_deleteIS3_EEptEv(ptr noundef nonnull align 8 dereferenceable(8) %0) #3 align 2 {
  %2 = alloca ptr, align 8
  store ptr %0, ptr %2, align 8, !tbaa !2059
  %3 = load ptr, ptr %2, align 8
  %4 = call noundef ptr @_ZNKSt10unique_ptrIN7rocksdb12experimental12_GLOBAL__N_121SstQueryFilterBuilderESt14default_deleteIS3_EE3getEv(ptr noundef nonnull align 8 dereferenceable(8) %3) #4
  ret ptr %4
}

; Function Attrs: mustprogress nounwind uwtable
define linkonce_odr noundef zeroext i1 @_ZNK7rocksdb12SmallEnumSetINS_12experimental20KeySegmentsExtractor11KeyCategoryELS3_63EE8ContainsES3_(ptr noundef nonnull align 8 dereferenceable(8) %0, i8 noundef zeroext %1) #3 comdat align 2 {
  %3 = alloca ptr, align 8
  %4 = alloca i8, align 1
  %5 = alloca i32, align 4
  %6 = alloca i64, align 8
  store ptr %0, ptr %3, align 8, !tbaa !681
  store i8 %1, ptr %4, align 1, !tbaa !2171
  %7 = load ptr, ptr %3, align 8
  call void @llvm.lifetime.start.p0(i64 4, ptr %5) #4
  %8 = load i8, ptr %4, align 1, !tbaa !2171
  %9 = zext i8 %8 to i32
  store i32 %9, ptr %5, align 4, !tbaa !58
  call void @llvm.lifetime.start.p0(i64 8, ptr %6) #4
  store i64 1, ptr %6, align 8, !tbaa !4
  %10 = getelementptr inbounds nuw %"class.rocksdb::SmallEnumSet.471", ptr %7, i32 0, i32 0
  %11 = load i64, ptr %10, align 8, !tbaa !2152
  %12 = load i64, ptr %6, align 8, !tbaa !4
  %13 = load i32, ptr %5, align 4, !tbaa !58
  %14 = zext i32 %13 to i64
  %15 = shl i64 %12, %14
  %16 = and i64 %11, %15
  %17 = icmp ne i64 %16, 0
  call void @llvm.lifetime.end.p0(i64 8, ptr %6) #4
  call void @llvm.lifetime.end.p0(i64 4, ptr %5) #4
  ret i1 %17
}

; Function Attrs: mustprogress uwtable
define internal void @_ZN7rocksdb12experimental12_GLOBAL__N_133CategoryScopeFilterWrapperBuilder3AddERKNS_5SliceERKNS0_20KeySegmentsExtractor6ResultEPS4_PS8_(ptr noundef nonnull align 8 dereferenceable(24) %0, ptr noundef nonnull align 8 dereferenceable(16) %1, ptr noundef nonnull align 8 dereferenceable(25) %2, ptr noundef %3, ptr noundef %4) unnamed_addr #5 align 2 {
  %6 = alloca ptr, align 8
  %7 = alloca ptr, align 8
  %8 = alloca ptr, align 8
  %9 = alloca ptr, align 8
  %10 = alloca ptr, align 8
  store ptr %0, ptr %6, align 8, !tbaa !2065
  store ptr %1, ptr %7, align 8, !tbaa !10
  store ptr %2, ptr %8, align 8, !tbaa !1827
  store ptr %3, ptr %9, align 8, !tbaa !10
  store ptr %4, ptr %10, align 8, !tbaa !1827
  %11 = load ptr, ptr %6, align 8
  %12 = getelementptr inbounds nuw %"class.rocksdb::experimental::(anonymous namespace)::CategoryScopeFilterWrapperBuilder", ptr %11, i32 0, i32 1
  %13 = load ptr, ptr %8, align 8, !tbaa !1827
  %14 = getelementptr inbounds nuw %"struct.rocksdb::experimental::KeySegmentsExtractor::Result", ptr %13, i32 0, i32 1
  %15 = load i8, ptr %14, align 8, !tbaa !2155
  %16 = call noundef zeroext i1 @_ZNK7rocksdb12SmallEnumSetINS_12experimental20KeySegmentsExtractor11KeyCategoryELS3_63EE8ContainsES3_(ptr noundef nonnull align 8 dereferenceable(8) %12, i8 noundef zeroext %15)
  br i1 %16, label %18, label %17

17:                                               ; preds = %5
  br label %28

18:                                               ; preds = %5
  %19 = getelementptr inbounds nuw %"class.rocksdb::experimental::(anonymous namespace)::CategoryScopeFilterWrapperBuilder", ptr %11, i32 0, i32 2
  %20 = call noundef ptr @_ZNKSt10unique_ptrIN7rocksdb12experimental12_GLOBAL__N_121SstQueryFilterBuilderESt14default_deleteIS3_EEptEv(ptr noundef nonnull align 8 dereferenceable(8) %19) #4
  %21 = load ptr, ptr %7, align 8, !tbaa !10
  %22 = load ptr, ptr %8, align 8, !tbaa !1827
  %23 = load ptr, ptr %9, align 8, !tbaa !10
  %24 = load ptr, ptr %10, align 8, !tbaa !1827
  %25 = load ptr, ptr %20, align 8, !tbaa !56
  %26 = getelementptr inbounds ptr, ptr %25, i64 2
  %27 = load ptr, ptr %26, align 8
  call void %27(ptr noundef nonnull align 8 dereferenceable(8) %20, ptr noundef nonnull align 8 dereferenceable(16) %21, ptr noundef nonnull align 8 dereferenceable(25) %22, ptr noundef %23, ptr noundef %24)
  br label %28

28:                                               ; preds = %18, %17
  ret void
}