; Function Attrs: mustprogress uwtable
define internal void @_ZN7rocksdb12experimental12_GLOBAL__N_133CategoryScopeFilterWrapperBuilder3AddERKNS_5SliceERKNS0_20KeySegmentsExtractor6ResultEPS4_PS8_(ptr noundef nonnull readonly align 8 captures(none) dereferenceable(24) %0, ptr noundef nonnull align 8 dereferenceable(16) %1, ptr noundef nonnull align 8 dereferenceable(25) %2, ptr noundef %3, ptr noundef %4) unnamed_addr #4 align 2 {
  %6 = getelementptr inbounds nuw i8, ptr %0, i64 8
  %7 = getelementptr inbounds nuw i8, ptr %2, i64 24
  %8 = load i8, ptr %7, align 8, !tbaa !1023
  %9 = load i64, ptr %6, align 8, !tbaa !991
  %10 = zext nneg i8 %8 to i64
  %11 = shl nuw i64 1, %10
  %12 = and i64 %11, %9
  %.not = icmp eq i64 %12, 0
  br i1 %.not, label %18, label %13

13:                                               ; preds = %5
  %14 = getelementptr inbounds nuw i8, ptr %0, i64 16
  %.val = load ptr, ptr %14, align 8, !tbaa !995
  %15 = load ptr, ptr %.val, align 8, !tbaa !21
  %16 = getelementptr inbounds nuw i8, ptr %15, i64 16
  %17 = load ptr, ptr %16, align 8
  tail call void %17(ptr noundef nonnull align 8 dereferenceable(8) %.val, ptr noundef nonnull align 8 dereferenceable(16) %1, ptr noundef nonnull align 8 dereferenceable(25) %2, ptr noundef %3, ptr noundef %4)
  br label %18

18:                                               ; preds = %5, %13
  ret void
}